; Function Attrs: mustprogress uwtable
define noundef zeroext i1 @_ZNK5folly16LogHandlerConfigeqERKS0_(ptr noundef nonnull align 8 dereferenceable(96) %0, ptr noundef nonnull align 8 dereferenceable(96) %1) local_unnamed_addr #3 align 2 personality ptr @__gxx_personality_v0 {
  %3 = getelementptr inbounds nuw i8, ptr %0, i64 32
  %4 = load i8, ptr %3, align 8, !tbaa !38, !range !43, !noundef !44
  %5 = trunc nuw i8 %4 to i1
  %6 = getelementptr inbounds nuw i8, ptr %1, i64 32
  %7 = load i8, ptr %6, align 8, !tbaa !38, !range !43, !noundef !44
  %8 = trunc nuw i8 %7 to i1
  %9 = and i1 %5, %8
  br i1 %9, label %_ZNKR5folly8OptionalINSt7__cxx1112basic_stringIcSt11char_traitsIcESaIcEEEE5valueEv.exit6.i, label %_ZN5follyeqINSt7__cxx1112basic_stringIcSt11char_traitsIcESaIcEEES6_EEbRKNS_8OptionalIT_EERKNS7_IT0_EE.exit

_ZNKR5folly8OptionalINSt7__cxx1112basic_stringIcSt11char_traitsIcESaIcEEEE5valueEv.exit6.i: ; preds = %2
  %10 = getelementptr inbounds nuw i8, ptr %0, i64 8
  %11 = load i64, ptr %10, align 8, !tbaa !37
  %12 = getelementptr inbounds nuw i8, ptr %1, i64 8
  %13 = load i64, ptr %12, align 8, !tbaa !37
  %14 = icmp eq i64 %11, %13
  br i1 %14, label %15, label %_ZN5follyeqINSt7__cxx1112basic_stringIcSt11char_traitsIcESaIcEEES6_EEbRKNS_8OptionalIT_EERKNS7_IT0_EE.exit.thread4

15:                                               ; preds = %_ZNKR5folly8OptionalINSt7__cxx1112basic_stringIcSt11char_traitsIcESaIcEEEE5valueEv.exit6.i
  %16 = icmp eq i64 %11, 0
  br i1 %16, label %_ZN5follyeqINSt7__cxx1112basic_stringIcSt11char_traitsIcESaIcEEES6_EEbRKNS_8OptionalIT_EERKNS7_IT0_EE.exit.thread, label %17

17:                                               ; preds = %15
  %18 = load ptr, ptr %1, align 8, !tbaa !34
  %19 = load ptr, ptr %0, align 8, !tbaa !34
  %bcmp.i.i = tail call i32 @bcmp(ptr %19, ptr %18, i64 %11)
  %20 = icmp eq i32 %bcmp.i.i, 0
  br i1 %20, label %_ZN5follyeqINSt7__cxx1112basic_stringIcSt11char_traitsIcESaIcEEES6_EEbRKNS_8OptionalIT_EERKNS7_IT0_EE.exit.thread, label %_ZN5follyeqINSt7__cxx1112basic_stringIcSt11char_traitsIcESaIcEEES6_EEbRKNS_8OptionalIT_EERKNS7_IT0_EE.exit.thread4

_ZN5follyeqINSt7__cxx1112basic_stringIcSt11char_traitsIcESaIcEEES6_EEbRKNS_8OptionalIT_EERKNS7_IT0_EE.exit: ; preds = %2
  %21 = xor i1 %5, %8
  br i1 %21, label %_ZN5follyeqINSt7__cxx1112basic_stringIcSt11char_traitsIcESaIcEEES6_EEbRKNS_8OptionalIT_EERKNS7_IT0_EE.exit.thread4, label %_ZN5follyeqINSt7__cxx1112basic_stringIcSt11char_traitsIcESaIcEEES6_EEbRKNS_8OptionalIT_EERKNS7_IT0_EE.exit.thread

_ZN5follyeqINSt7__cxx1112basic_stringIcSt11char_traitsIcESaIcEEES6_EEbRKNS_8OptionalIT_EERKNS7_IT0_EE.exit.thread: ; preds = %15, %17, %_ZN5follyeqINSt7__cxx1112basic_stringIcSt11char_traitsIcESaIcEEES6_EEbRKNS_8OptionalIT_EERKNS7_IT0_EE.exit
  %22 = getelementptr inbounds nuw i8, ptr %0, i64 40
  %23 = getelementptr inbounds nuw i8, ptr %1, i64 40
  %24 = tail call noundef zeroext i1 @_ZNKSt8__detail9_EqualityINSt7__cxx1112basic_stringIcSt11char_traitsIcESaIcEEESt4pairIKS6_S6_ESaIS9_ENS_10_Select1stESt8equal_toIS6_ESt4hashIS6_ENS_18_Mod_range_hashingENS_20_Default_ranged_hashENS_20_Prime_rehash_policyENS_17_Hashtable_traitsILb1ELb0ELb1EEELb1EE8_M_equalERKSt10_HashtableIS6_S9_SA_SB_SD_SF_SG_SH_SI_SK_E(ptr noundef nonnull align 8 dereferenceable(56) %22, ptr noundef nonnull align 8 dereferenceable(56) %23)
  br label %_ZN5follyeqINSt7__cxx1112basic_stringIcSt11char_traitsIcESaIcEEES6_EEbRKNS_8OptionalIT_EERKNS7_IT0_EE.exit.thread4

_ZN5follyeqINSt7__cxx1112basic_stringIcSt11char_traitsIcESaIcEEES6_EEbRKNS_8OptionalIT_EERKNS7_IT0_EE.exit.thread4: ; preds = %_ZNKR5folly8OptionalINSt7__cxx1112basic_stringIcSt11char_traitsIcESaIcEEEE5valueEv.exit6.i, %17, %_ZN5follyeqINSt7__cxx1112basic_stringIcSt11char_traitsIcESaIcEEES6_EEbRKNS_8OptionalIT_EERKNS7_IT0_EE.exit.thread, %_ZN5follyeqINSt7__cxx1112basic_stringIcSt11char_traitsIcESaIcEEES6_EEbRKNS_8OptionalIT_EERKNS7_IT0_EE.exit
  %25 = phi i1 [ false, %_ZN5follyeqINSt7__cxx1112basic_stringIcSt11char_traitsIcESaIcEEES6_EEbRKNS_8OptionalIT_EERKNS7_IT0_EE.exit ], [ %24, %_ZN5follyeqINSt7__cxx1112basic_stringIcSt11char_traitsIcESaIcEEES6_EEbRKNS_8OptionalIT_EERKNS7_IT0_EE.exit.thread ], [ false, %17 ], [ false, %_ZNKR5folly8OptionalINSt7__cxx1112basic_stringIcSt11char_traitsIcESaIcEEEE5valueEv.exit6.i ]
  ret i1 %25
}